target datalayout = "e-m:e-p270:32:32-p271:32:32-p272:64:64-i64:64-i128:128-f80:128-n8:16:32:64-S128"
target triple = "x86_64-unknown-linux-gnu"

@_ZL7gOpener = internal global ptr null, align 8

; Function Attrs: mustprogress nounwind uwtable
define internal noundef signext i8 @_ZL9U_FAILURE10UErrorCode(i32 noundef %code) #0 {
entry:
  %code.addr = alloca i32, align 4
  store i32 %code, ptr %code.addr, align 4
  %0 = load i32, ptr %code.addr, align 4
  %cmp = icmp sgt i32 %0, 0
  %conv = zext i1 %cmp to i8
  ret i8 %conv
}

; Function Attrs: mustprogress uwtable
define ptr @udat_unregisterOpener_75(ptr noundef %opener, ptr noundef %status) #1 {
entry:
  %retval = alloca ptr, align 8
  %opener.addr = alloca ptr, align 8
  %status.addr = alloca ptr, align 8
  %oldOpener = alloca ptr, align 8
  store ptr %opener, ptr %opener.addr, align 8
  store ptr %status, ptr %status.addr, align 8
  %0 = load ptr, ptr %status.addr, align 8
  %1 = load i32, ptr %0, align 4
  %call = call noundef signext i8 @_ZL9U_FAILURE10UErrorCode(i32 noundef %1)
  %tobool = icmp ne i8 %call, 0
  br i1 %tobool, label %if.then, label %if.end

if.then:                                          ; preds = %entry
  store ptr null, ptr %retval, align 8
  br label %return

if.end:                                           ; preds = %entry
  store ptr null, ptr %oldOpener, align 8
  call void @umtx_lock_75(ptr noundef null)
  %2 = load ptr, ptr @_ZL7gOpener, align 8
  %cmp = icmp eq ptr %2, null
  br i1 %cmp, label %if.then2, label %lor.lhs.false

lor.lhs.false:                                    ; preds = %if.end
  %3 = load ptr, ptr @_ZL7gOpener, align 8
  %4 = load ptr, ptr %opener.addr, align 8
  %cmp1 = icmp ne ptr %3, %4
  br i1 %cmp1, label %if.then2, label %if.else

if.then2:                                         ; preds = %lor.lhs.false, %if.end
  %5 = load ptr, ptr %status.addr, align 8
  store i32 1, ptr %5, align 4
  br label %if.end3

if.else:                                          ; preds = %lor.lhs.false
  %6 = load ptr, ptr @_ZL7gOpener, align 8
  store ptr %6, ptr %oldOpener, align 8
  store ptr null, ptr @_ZL7gOpener, align 8
  br label %if.end3

if.end3:                                          ; preds = %if.else, %if.then2
  call void @umtx_unlock_75(ptr noundef null)
  %7 = load ptr, ptr %oldOpener, align 8
  store ptr %7, ptr %retval, align 8
  br label %return

return:                                           ; preds = %if.end3, %if.then
  %8 = load ptr, ptr %retval, align 8
  ret ptr %8
}