; Function Attrs: mustprogress uwtable
define noundef ptr @udat_unregisterOpener_75(ptr noundef readnone %opener, ptr nocapture noundef %status) local_unnamed_addr #1 {
entry:
  %0 = load i32, ptr %status, align 4
  %cmp.i = icmp slt i32 %0, 1
  br i1 %cmp.i, label %if.end, label %return

if.end:                                           ; preds = %entry
  tail call void @umtx_lock_75(ptr noundef null)
  %1 = load ptr, ptr @_ZL7gOpener, align 8
  %cmp = icmp ne ptr %1, null
  %cmp1.not = icmp eq ptr %1, %opener
  %or.cond = and i1 %cmp, %cmp1.not
  br i1 %or.cond, label %if.else, label %if.then2

if.then2:                                         ; preds = %if.end
  store i32 1, ptr %status, align 4
  br label %if.end3

if.else:                                          ; preds = %if.end
  store ptr null, ptr @_ZL7gOpener, align 8
  br label %if.end3

if.end3:                                          ; preds = %if.else, %if.then2
  %oldOpener.0 = phi ptr [ null, %if.then2 ], [ %opener, %if.else ]
  tail call void @umtx_unlock_75(ptr noundef null)
  br label %return

return:                                           ; preds = %entry, %if.end3
  %retval.0 = phi ptr [ %oldOpener.0, %if.end3 ], [ null, %entry ]
  ret ptr %retval.0
}